target datalayout = "e-m:e-p270:32:32-p271:32:32-p272:64:64-i64:64-i128:128-f80:128-n8:16:32:64-S128"
target triple = "x86_64-pc-linux-gnu"

%"struct.Luau::CodeGen::BuiltinImplResult" = type { i32, i32 }
%"struct.Luau::CodeGen::IrOp" = type { i32 }

; Function Attrs: mustprogress uwtable
define internal i32 @_ZN4Luau7CodeGenL17builtinLoadDoubleERNS0_9IrBuilderENS0_4IrOpE(ptr noundef nonnull align 8 dereferenceable(752) %0, i32 %1) #2 {
  %3 = alloca %"struct.Luau::CodeGen::IrOp", align 4
  %4 = alloca %"struct.Luau::CodeGen::IrOp", align 4
  %5 = alloca ptr, align 8
  %6 = alloca %"struct.Luau::CodeGen::IrOp", align 4
  %7 = getelementptr inbounds nuw %"struct.Luau::CodeGen::IrOp", ptr %4, i32 0, i32 0
  store i32 %1, ptr %7, align 4
  store ptr %0, ptr %5, align 8, !tbaa !20
  %8 = load i32, ptr %4, align 4
  %9 = and i32 %8, 15
  %10 = icmp eq i32 %9, 2
  br i1 %10, label %11, label %12

11:                                               ; preds = %2
  call void @llvm.memcpy.p0.p0.i64(ptr align 4 %3, ptr align 4 %4, i64 4, i1 false), !tbaa.struct !28
  br label %18

12:                                               ; preds = %2
  %13 = load ptr, ptr %5, align 8, !tbaa !20
  call void @llvm.memcpy.p0.p0.i64(ptr align 4 %6, ptr align 4 %4, i64 4, i1 false), !tbaa.struct !28
  %14 = getelementptr inbounds nuw %"struct.Luau::CodeGen::IrOp", ptr %6, i32 0, i32 0
  %15 = load i32, ptr %14, align 4
  %16 = call i32 @_ZN4Luau7CodeGen9IrBuilder4instENS0_5IrCmdENS0_4IrOpE(ptr noundef nonnull align 8 dereferenceable(752) %13, i8 noundef zeroext 3, i32 %15)
  %17 = getelementptr inbounds nuw %"struct.Luau::CodeGen::IrOp", ptr %3, i32 0, i32 0
  store i32 %16, ptr %17, align 4
  br label %18

18:                                               ; preds = %12, %11
  %19 = getelementptr inbounds nuw %"struct.Luau::CodeGen::IrOp", ptr %3, i32 0, i32 0
  %20 = load i32, ptr %19, align 4
  ret i32 %20
}

; Function Attrs: mustprogress uwtable
define internal void @_ZN4Luau7CodeGenL18builtinCheckDoubleERNS0_9IrBuilderENS0_4IrOpEi(ptr noundef nonnull align 8 dereferenceable(752) %0, i32 %1, i32 noundef %2) #2 {
  %4 = alloca %"struct.Luau::CodeGen::IrOp", align 4
  %5 = alloca ptr, align 8
  %6 = alloca i32, align 4
  %7 = alloca %"struct.Luau::CodeGen::IrOp", align 4
  %8 = alloca %"struct.Luau::CodeGen::IrOp", align 4
  %9 = getelementptr inbounds nuw %"struct.Luau::CodeGen::IrOp", ptr %4, i32 0, i32 0
  store i32 %1, ptr %9, align 4
  store ptr %0, ptr %5, align 8, !tbaa !20
  store i32 %2, ptr %6, align 4, !tbaa !22
  %10 = load i32, ptr %4, align 4
  %11 = and i32 %10, 15
  %12 = icmp eq i32 %11, 2
  br i1 %12, label %13, label %14

13:                                               ; preds = %3
  br label %24

14:                                               ; preds = %3
  %15 = load ptr, ptr %5, align 8, !tbaa !20
  call void @llvm.memcpy.p0.p0.i64(ptr align 4 %7, ptr align 4 %4, i64 4, i1 false), !tbaa.struct !28
  %16 = load ptr, ptr %5, align 8, !tbaa !20
  %17 = load i32, ptr %6, align 4, !tbaa !22
  %18 = call i32 @_ZN4Luau7CodeGen9IrBuilder6vmExitEj(ptr noundef nonnull align 8 dereferenceable(752) %16, i32 noundef %17)
  %19 = getelementptr inbounds nuw %"struct.Luau::CodeGen::IrOp", ptr %8, i32 0, i32 0
  store i32 %18, ptr %19, align 4
  %20 = getelementptr inbounds nuw %"struct.Luau::CodeGen::IrOp", ptr %7, i32 0, i32 0
  %21 = load i32, ptr %20, align 4
  %22 = getelementptr inbounds nuw %"struct.Luau::CodeGen::IrOp", ptr %8, i32 0, i32 0
  %23 = load i32, ptr %22, align 4
  call void @_ZN4Luau7CodeGen9IrBuilder15loadAndCheckTagENS0_4IrOpEhS2_(ptr noundef nonnull align 8 dereferenceable(752) %15, i32 %21, i8 noundef zeroext 3, i32 %23)
  br label %24

24:                                               ; preds = %14, %13
  ret void
}

; Function Attrs: mustprogress uwtable
define internal i64 @_ZN4Luau7CodeGenL25translateBuiltinMathUnaryERNS0_9IrBuilderENS0_5IrCmdEiiiii(ptr noundef nonnull align 8 dereferenceable(752) %0, i8 noundef zeroext %1, i32 noundef %2, i32 noundef %3, i32 noundef %4, i32 noundef %5, i32 noundef %6) #2 {
  %8 = alloca %"struct.Luau::CodeGen::BuiltinImplResult", align 4
  %9 = alloca ptr, align 8
  %10 = alloca i8, align 1
  %11 = alloca i32, align 4
  %12 = alloca i32, align 4
  %13 = alloca i32, align 4
  %14 = alloca i32, align 4
  %15 = alloca i32, align 4
  %16 = alloca %"struct.Luau::CodeGen::IrOp", align 4
  %17 = alloca %"struct.Luau::CodeGen::IrOp", align 4
  %18 = alloca %"struct.Luau::CodeGen::IrOp", align 4
  %19 = alloca %"struct.Luau::CodeGen::IrOp", align 4
  %20 = alloca %"struct.Luau::CodeGen::IrOp", align 4
  %21 = alloca %"struct.Luau::CodeGen::IrOp", align 4
  %22 = alloca %"struct.Luau::CodeGen::IrOp", align 4
  %23 = alloca %"struct.Luau::CodeGen::IrOp", align 4
  %24 = alloca %"struct.Luau::CodeGen::IrOp", align 4
  %25 = alloca %"struct.Luau::CodeGen::IrOp", align 4
  %26 = alloca %"struct.Luau::CodeGen::IrOp", align 4
  store ptr %0, ptr %9, align 8, !tbaa !20
  store i8 %1, ptr %10, align 1, !tbaa !32
  store i32 %2, ptr %11, align 4, !tbaa !22
  store i32 %3, ptr %12, align 4, !tbaa !22
  store i32 %4, ptr %13, align 4, !tbaa !22
  store i32 %5, ptr %14, align 4, !tbaa !22
  store i32 %6, ptr %15, align 4, !tbaa !22
  %27 = load i32, ptr %11, align 4, !tbaa !22
  %28 = icmp slt i32 %27, 1
  br i1 %28, label %32, label %29

29:                                               ; preds = %7
  %30 = load i32, ptr %14, align 4, !tbaa !22
  %31 = icmp sgt i32 %30, 1
  br i1 %31, label %32, label %35

32:                                               ; preds = %29, %7
  %33 = getelementptr inbounds nuw %"struct.Luau::CodeGen::BuiltinImplResult", ptr %8, i32 0, i32 0
  store i32 0, ptr %33, align 4, !tbaa !24
  %34 = getelementptr inbounds nuw %"struct.Luau::CodeGen::BuiltinImplResult", ptr %8, i32 0, i32 1
  store i32 -1, ptr %34, align 4, !tbaa !27
  br label %95

35:                                               ; preds = %29
  %36 = load ptr, ptr %9, align 8, !tbaa !20
  %37 = load ptr, ptr %9, align 8, !tbaa !20
  %38 = load i32, ptr %13, align 4, !tbaa !22
  %39 = trunc i32 %38 to i8
  %40 = call i32 @_ZN4Luau7CodeGen9IrBuilder5vmRegEh(ptr noundef nonnull align 8 dereferenceable(752) %37, i8 noundef zeroext %39)
  %41 = getelementptr inbounds nuw %"struct.Luau::CodeGen::IrOp", ptr %16, i32 0, i32 0
  store i32 %40, ptr %41, align 4
  %42 = load i32, ptr %15, align 4, !tbaa !22
  %43 = getelementptr inbounds nuw %"struct.Luau::CodeGen::IrOp", ptr %16, i32 0, i32 0
  %44 = load i32, ptr %43, align 4
  call void @_ZN4Luau7CodeGenL18builtinCheckDoubleERNS0_9IrBuilderENS0_4IrOpEi(ptr noundef nonnull align 8 dereferenceable(752) %36, i32 %44, i32 noundef %42)
  call void @llvm.lifetime.start.p0(i64 4, ptr %17) #11
  %45 = load ptr, ptr %9, align 8, !tbaa !20
  %46 = load ptr, ptr %9, align 8, !tbaa !20
  %47 = load i32, ptr %13, align 4, !tbaa !22
  %48 = trunc i32 %47 to i8
  %49 = call i32 @_ZN4Luau7CodeGen9IrBuilder5vmRegEh(ptr noundef nonnull align 8 dereferenceable(752) %46, i8 noundef zeroext %48)
  %50 = getelementptr inbounds nuw %"struct.Luau::CodeGen::IrOp", ptr %18, i32 0, i32 0
  store i32 %49, ptr %50, align 4
  %51 = getelementptr inbounds nuw %"struct.Luau::CodeGen::IrOp", ptr %18, i32 0, i32 0
  %52 = load i32, ptr %51, align 4
  %53 = call i32 @_ZN4Luau7CodeGenL17builtinLoadDoubleERNS0_9IrBuilderENS0_4IrOpE(ptr noundef nonnull align 8 dereferenceable(752) %45, i32 %52)
  %54 = getelementptr inbounds nuw %"struct.Luau::CodeGen::IrOp", ptr %17, i32 0, i32 0
  store i32 %53, ptr %54, align 4
  call void @llvm.lifetime.start.p0(i64 4, ptr %19) #11
  %55 = load ptr, ptr %9, align 8, !tbaa !20
  %56 = load i8, ptr %10, align 1, !tbaa !32
  call void @llvm.memcpy.p0.p0.i64(ptr align 4 %20, ptr align 4 %17, i64 4, i1 false), !tbaa.struct !28
  %57 = getelementptr inbounds nuw %"struct.Luau::CodeGen::IrOp", ptr %20, i32 0, i32 0
  %58 = load i32, ptr %57, align 4
  %59 = call i32 @_ZN4Luau7CodeGen9IrBuilder4instENS0_5IrCmdENS0_4IrOpE(ptr noundef nonnull align 8 dereferenceable(752) %55, i8 noundef zeroext %56, i32 %58)
  %60 = getelementptr inbounds nuw %"struct.Luau::CodeGen::IrOp", ptr %19, i32 0, i32 0
  store i32 %59, ptr %60, align 4
  %61 = load ptr, ptr %9, align 8, !tbaa !20
  %62 = load ptr, ptr %9, align 8, !tbaa !20
  %63 = load i32, ptr %12, align 4, !tbaa !22
  %64 = trunc i32 %63 to i8
  %65 = call i32 @_ZN4Luau7CodeGen9IrBuilder5vmRegEh(ptr noundef nonnull align 8 dereferenceable(752) %62, i8 noundef zeroext %64)
  %66 = getelementptr inbounds nuw %"struct.Luau::CodeGen::IrOp", ptr %21, i32 0, i32 0
  store i32 %65, ptr %66, align 4
  call void @llvm.memcpy.p0.p0.i64(ptr align 4 %22, ptr align 4 %19, i64 4, i1 false), !tbaa.struct !28
  %67 = getelementptr inbounds nuw %"struct.Luau::CodeGen::IrOp", ptr %21, i32 0, i32 0
  %68 = load i32, ptr %67, align 4
  %69 = getelementptr inbounds nuw %"struct.Luau::CodeGen::IrOp", ptr %22, i32 0, i32 0
  %70 = load i32, ptr %69, align 4
  %71 = call i32 @_ZN4Luau7CodeGen9IrBuilder4instENS0_5IrCmdENS0_4IrOpES3_(ptr noundef nonnull align 8 dereferenceable(752) %61, i8 noundef zeroext 15, i32 %68, i32 %70)
  %72 = getelementptr inbounds nuw %"struct.Luau::CodeGen::IrOp", ptr %23, i32 0, i32 0
  store i32 %71, ptr %72, align 4
  %73 = load i32, ptr %12, align 4, !tbaa !22
  %74 = load i32, ptr %13, align 4, !tbaa !22
  %75 = icmp ne i32 %73, %74
  br i1 %75, label %76, label %92

76:                                               ; preds = %35
  %77 = load ptr, ptr %9, align 8, !tbaa !20
  %78 = load ptr, ptr %9, align 8, !tbaa !20
  %79 = load i32, ptr %12, align 4, !tbaa !22
  %80 = trunc i32 %79 to i8
  %81 = call i32 @_ZN4Luau7CodeGen9IrBuilder5vmRegEh(ptr noundef nonnull align 8 dereferenceable(752) %78, i8 noundef zeroext %80)
  %82 = getelementptr inbounds nuw %"struct.Luau::CodeGen::IrOp", ptr %24, i32 0, i32 0
  store i32 %81, ptr %82, align 4
  %83 = load ptr, ptr %9, align 8, !tbaa !20
  %84 = call i32 @_ZN4Luau7CodeGen9IrBuilder8constTagEh(ptr noundef nonnull align 8 dereferenceable(752) %83, i8 noundef zeroext 3)
  %85 = getelementptr inbounds nuw %"struct.Luau::CodeGen::IrOp", ptr %25, i32 0, i32 0
  store i32 %84, ptr %85, align 4
  %86 = getelementptr inbounds nuw %"struct.Luau::CodeGen::IrOp", ptr %24, i32 0, i32 0
  %87 = load i32, ptr %86, align 4
  %88 = getelementptr inbounds nuw %"struct.Luau::CodeGen::IrOp", ptr %25, i32 0, i32 0
  %89 = load i32, ptr %88, align 4
  %90 = call i32 @_ZN4Luau7CodeGen9IrBuilder4instENS0_5IrCmdENS0_4IrOpES3_(ptr noundef nonnull align 8 dereferenceable(752) %77, i8 noundef zeroext 12, i32 %87, i32 %89)
  %91 = getelementptr inbounds nuw %"struct.Luau::CodeGen::IrOp", ptr %26, i32 0, i32 0
  store i32 %90, ptr %91, align 4
  br label %92

92:                                               ; preds = %76, %35
  %93 = getelementptr inbounds nuw %"struct.Luau::CodeGen::BuiltinImplResult", ptr %8, i32 0, i32 0
  store i32 2, ptr %93, align 4, !tbaa !24
  %94 = getelementptr inbounds nuw %"struct.Luau::CodeGen::BuiltinImplResult", ptr %8, i32 0, i32 1
  store i32 1, ptr %94, align 4, !tbaa !27
  call void @llvm.lifetime.end.p0(i64 4, ptr %19) #11
  call void @llvm.lifetime.end.p0(i64 4, ptr %17) #11
  br label %95

95:                                               ; preds = %92, %32
  %96 = load i64, ptr %8, align 4
  ret i64 %96
}