; Function Attrs: mustprogress uwtable
define internal fastcc range(i64 -4294967296, 4294967299) i64 @_ZN4Luau7CodeGenL25translateBuiltinMathUnaryERNS0_9IrBuilderENS0_5IrCmdEiiiii(ptr noundef nonnull align 8 dereferenceable(752) %0, i8 noundef zeroext range(i8 31, 37) %1, i32 noundef range(i32 0, -1) %2, i32 noundef %3, i32 noundef %4, i32 noundef %5, i32 noundef %6) unnamed_addr #0 {
  %8 = icmp slt i32 %2, 1
  %9 = icmp sgt i32 %5, 1
  %or.cond = or i1 %8, %9
  br i1 %or.cond, label %30, label %10

10:                                               ; preds = %7
  %11 = trunc i32 %4 to i8
  %12 = tail call i32 @_ZN4Luau7CodeGen9IrBuilder5vmRegEh(ptr noundef nonnull align 8 dereferenceable(752) %0, i8 noundef zeroext %11)
  %13 = and i32 %12, 15
  %14 = icmp eq i32 %13, 2
  br i1 %14, label %_ZN4Luau7CodeGenL18builtinCheckDoubleERNS0_9IrBuilderENS0_4IrOpEi.exit, label %15

15:                                               ; preds = %10
  %16 = tail call i32 @_ZN4Luau7CodeGen9IrBuilder6vmExitEj(ptr noundef nonnull align 8 dereferenceable(752) %0, i32 noundef %6)
  tail call void @_ZN4Luau7CodeGen9IrBuilder15loadAndCheckTagENS0_4IrOpEhS2_(ptr noundef nonnull align 8 dereferenceable(752) %0, i32 %12, i8 noundef zeroext 3, i32 %16)
  br label %_ZN4Luau7CodeGenL18builtinCheckDoubleERNS0_9IrBuilderENS0_4IrOpEi.exit

_ZN4Luau7CodeGenL18builtinCheckDoubleERNS0_9IrBuilderENS0_4IrOpEi.exit: ; preds = %10, %15
  %17 = tail call i32 @_ZN4Luau7CodeGen9IrBuilder5vmRegEh(ptr noundef nonnull align 8 dereferenceable(752) %0, i8 noundef zeroext %11)
  %18 = and i32 %17, 15
  %19 = icmp eq i32 %18, 2
  br i1 %19, label %_ZN4Luau7CodeGenL17builtinLoadDoubleERNS0_9IrBuilderENS0_4IrOpE.exit, label %20

20:                                               ; preds = %_ZN4Luau7CodeGenL18builtinCheckDoubleERNS0_9IrBuilderENS0_4IrOpEi.exit
  %21 = tail call i32 @_ZN4Luau7CodeGen9IrBuilder4instENS0_5IrCmdENS0_4IrOpE(ptr noundef nonnull align 8 dereferenceable(752) %0, i8 noundef zeroext 3, i32 %17)
  br label %_ZN4Luau7CodeGenL17builtinLoadDoubleERNS0_9IrBuilderENS0_4IrOpE.exit

_ZN4Luau7CodeGenL17builtinLoadDoubleERNS0_9IrBuilderENS0_4IrOpE.exit: ; preds = %_ZN4Luau7CodeGenL18builtinCheckDoubleERNS0_9IrBuilderENS0_4IrOpEi.exit, %20
  %.sroa.03.0.i = phi i32 [ %21, %20 ], [ %17, %_ZN4Luau7CodeGenL18builtinCheckDoubleERNS0_9IrBuilderENS0_4IrOpEi.exit ]
  %22 = tail call i32 @_ZN4Luau7CodeGen9IrBuilder4instENS0_5IrCmdENS0_4IrOpE(ptr noundef nonnull align 8 dereferenceable(752) %0, i8 noundef zeroext %1, i32 %.sroa.03.0.i)
  %23 = trunc i32 %3 to i8
  %24 = tail call i32 @_ZN4Luau7CodeGen9IrBuilder5vmRegEh(ptr noundef nonnull align 8 dereferenceable(752) %0, i8 noundef zeroext %23)
  %25 = tail call i32 @_ZN4Luau7CodeGen9IrBuilder4instENS0_5IrCmdENS0_4IrOpES3_(ptr noundef nonnull align 8 dereferenceable(752) %0, i8 noundef zeroext 15, i32 %24, i32 %22)
  %.not = icmp eq i32 %3, %4
  br i1 %.not, label %30, label %26

26:                                               ; preds = %_ZN4Luau7CodeGenL17builtinLoadDoubleERNS0_9IrBuilderENS0_4IrOpE.exit
  %27 = tail call i32 @_ZN4Luau7CodeGen9IrBuilder5vmRegEh(ptr noundef nonnull align 8 dereferenceable(752) %0, i8 noundef zeroext %23)
  %28 = tail call i32 @_ZN4Luau7CodeGen9IrBuilder8constTagEh(ptr noundef nonnull align 8 dereferenceable(752) %0, i8 noundef zeroext 3)
  %29 = tail call i32 @_ZN4Luau7CodeGen9IrBuilder4instENS0_5IrCmdENS0_4IrOpES3_(ptr noundef nonnull align 8 dereferenceable(752) %0, i8 noundef zeroext 12, i32 %27, i32 %28)
  br label %30

30:                                               ; preds = %_ZN4Luau7CodeGenL17builtinLoadDoubleERNS0_9IrBuilderENS0_4IrOpE.exit, %26, %7
  %.sroa.030.0.insert.insert = phi i64 [ -4294967296, %7 ], [ 4294967298, %26 ], [ 4294967298, %_ZN4Luau7CodeGenL17builtinLoadDoubleERNS0_9IrBuilderENS0_4IrOpE.exit ]
  ret i64 %.sroa.030.0.insert.insert
}